target datalayout = "e-m:e-p270:32:32-p271:32:32-p272:64:64-i64:64-i128:128-f80:128-n8:16:32:64-S128"
target triple = "x86_64-unknown-linux-gnu"

%"class.std::__cxx11::basic_string" = type { %"struct.std::__cxx11::basic_string<char>::_Alloc_hider", i64, %union.anon }
%"struct.std::__cxx11::basic_string<char>::_Alloc_hider" = type { ptr }
%union.anon = type { i64, [8 x i8] }
%"class.proxygen::StructuredHeadersEncoder" = type { %"class.std::__cxx11::basic_string", %"class.boost::iostreams::stream_buffer", %"class.std::basic_ostream" }
%"class.boost::iostreams::stream_buffer" = type { %"class.boost::iostreams::detail::indirect_streambuf.base", [4 x i8] }
%"class.boost::iostreams::detail::indirect_streambuf.base" = type <{ %"class.boost::iostreams::detail::linked_streambuf.base", [4 x i8], %"class.boost::iostreams::detail::optional", ptr, %"class.boost::iostreams::detail::double_object", i64, i32 }>
%"class.boost::iostreams::detail::linked_streambuf.base" = type <{ %"class.std::basic_streambuf", i32 }>
%"class.std::basic_streambuf" = type { ptr, ptr, ptr, ptr, ptr, ptr, ptr, %"class.std::locale" }
%"class.std::locale" = type { ptr }
%"class.boost::iostreams::detail::optional" = type { %"class.boost::iostreams::detail::aligned_storage", i8, [7 x i8] }
%"class.boost::iostreams::detail::aligned_storage" = type { %"union.boost::iostreams::detail::aligned_storage<boost::iostreams::detail::concept_adapter<boost::iostreams::back_insert_device<std::__cxx11::basic_string<char>>>>::dummy_u" }
%"union.boost::iostreams::detail::aligned_storage<boost::iostreams::detail::concept_adapter<boost::iostreams::back_insert_device<std::__cxx11::basic_string<char>>>>::dummy_u" = type { [8 x i8] }
%"class.boost::iostreams::detail::double_object" = type { %"class.boost::iostreams::detail::single_object_holder" }
%"class.boost::iostreams::detail::single_object_holder" = type { %"class.boost::iostreams::detail::basic_buffer" }
%"class.boost::iostreams::detail::basic_buffer" = type { ptr, i64 }
%"class.std::basic_ostream" = type { ptr, %"class.std::basic_ios" }
%"class.std::basic_ios" = type { %"class.std::ios_base", ptr, i8, i8, ptr, ptr, ptr, ptr }
%"class.std::ios_base" = type { ptr, i64, i64, i32, i32, i32, ptr, %"struct.std::ios_base::_Words", [8 x %"struct.std::ios_base::_Words"], i32, ptr, %"class.std::locale" }
%"struct.std::ios_base::_Words" = type { ptr, i64 }

; Function Attrs: mustprogress uwtable
define noundef zeroext i8 @_ZN8proxygen24StructuredHeadersEncoder16encodeIdentifierERKNSt7__cxx1112basic_stringIcSt11char_traitsIcESaIcEEE(ptr noundef nonnull align 8 dereferenceable(432) %this, ptr noundef nonnull align 8 dereferenceable(32) %input) #0 align 2 {
entry:
  %retval = alloca i8, align 1
  %this.addr = alloca ptr, align 8
  %input.addr = alloca ptr, align 8
  store ptr %this, ptr %this.addr, align 8
  store ptr %input, ptr %input.addr, align 8
  %this1 = load ptr, ptr %this.addr, align 8
  %0 = load ptr, ptr %input.addr, align 8
  %call = call noundef zeroext i1 @_ZN8proxygen17StructuredHeaders17isValidIdentifierERKNSt7__cxx1112basic_stringIcSt11char_traitsIcESaIcEEE(ptr noundef nonnull align 8 dereferenceable(32) %0)
  br i1 %call, label %if.end, label %if.then

if.then:                                          ; preds = %entry
  %1 = load ptr, ptr %input.addr, align 8
  %call2 = call noundef zeroext i8 @_ZN8proxygen24StructuredHeadersEncoder17handleEncodeErrorENS_17StructuredHeaders11EncodeErrorERKNSt7__cxx1112basic_stringIcSt11char_traitsIcESaIcEEE(ptr noundef nonnull align 8 dereferenceable(432) %this1, i8 noundef zeroext 2, ptr noundef nonnull align 8 dereferenceable(32) %1)
  store i8 %call2, ptr %retval, align 1
  br label %return

if.end:                                           ; preds = %entry
  %outputStream_ = getelementptr inbounds %"class.proxygen::StructuredHeadersEncoder", ptr %this1, i32 0, i32 2
  %2 = load ptr, ptr %input.addr, align 8
  %call3 = call noundef nonnull align 8 dereferenceable(8) ptr @_ZStlsIcSt11char_traitsIcESaIcEERSt13basic_ostreamIT_T0_ES7_RKNSt7__cxx1112basic_stringIS4_S5_T1_EE(ptr noundef nonnull align 8 dereferenceable(8) %outputStream_, ptr noundef nonnull align 8 dereferenceable(32) %2)
  store i8 0, ptr %retval, align 1
  br label %return

return:                                           ; preds = %if.end, %if.then
  %3 = load i8, ptr %retval, align 1
  ret i8 %3
}