; Function Attrs: mustprogress uwtable
define noundef zeroext i8 @_ZN8proxygen24StructuredHeadersEncoder16encodeIdentifierERKNSt7__cxx1112basic_stringIcSt11char_traitsIcESaIcEEE(ptr noundef nonnull align 8 dereferenceable(432) %this, ptr noundef nonnull align 8 dereferenceable(32) %input) local_unnamed_addr #0 align 2 {
entry:
  %call = tail call noundef zeroext i1 @_ZN8proxygen17StructuredHeaders17isValidIdentifierERKNSt7__cxx1112basic_stringIcSt11char_traitsIcESaIcEEE(ptr noundef nonnull align 8 dereferenceable(32) %input)
  br i1 %call, label %if.end, label %if.then

if.then:                                          ; preds = %entry
  %call2 = tail call noundef zeroext i8 @_ZN8proxygen24StructuredHeadersEncoder17handleEncodeErrorENS_17StructuredHeaders11EncodeErrorERKNSt7__cxx1112basic_stringIcSt11char_traitsIcESaIcEEE(ptr nonnull align 8 poison, i8 noundef zeroext 2, ptr noundef nonnull align 8 dereferenceable(32) %input)
  br label %return

if.end:                                           ; preds = %entry
  %outputStream_ = getelementptr inbounds i8, ptr %this, i64 160
  %call3 = tail call noundef nonnull align 8 dereferenceable(8) ptr @_ZStlsIcSt11char_traitsIcESaIcEERSt13basic_ostreamIT_T0_ES7_RKNSt7__cxx1112basic_stringIS4_S5_T1_EE(ptr noundef nonnull align 8 dereferenceable(8) %outputStream_, ptr noundef nonnull align 8 dereferenceable(32) %input)
  br label %return

return:                                           ; preds = %if.end, %if.then
  %retval.0 = phi i8 [ 0, %if.end ], [ 2, %if.then ]
  ret i8 %retval.0
}